target datalayout = "e-m:e-p270:32:32-p271:32:32-p272:64:64-i64:64-i128:128-f80:128-n8:16:32:64-S128"
target triple = "x86_64-pc-linux-gnu"

%struct.vorbis_floor1_entry = type { i16, i16, i16, i16 }

@.str = private unnamed_addr constant [48 x i8] c"Duplicate value found in floor 1 X coordinates\0A\00", align 1

; Function Attrs: nounwind uwtable
define i32 @ff_vorbis_ready_floor1_list(ptr noundef %0, ptr noundef %1, i32 noundef %2) #0 {
  %4 = alloca i32, align 4
  %5 = alloca ptr, align 8
  %6 = alloca ptr, align 8
  %7 = alloca i32, align 4
  %8 = alloca i32, align 4
  %9 = alloca i32, align 4
  %10 = alloca i32, align 4
  %11 = alloca i32, align 4
  %12 = alloca i32, align 4
  %13 = alloca i32, align 4
  store ptr %0, ptr %5, align 8, !tbaa !24
  store ptr %1, ptr %6, align 8, !tbaa !25
  store i32 %2, ptr %7, align 4, !tbaa !4
  call void @llvm.lifetime.start.p0(i64 4, ptr %8) #6
  %14 = load ptr, ptr %6, align 8, !tbaa !25
  %15 = getelementptr inbounds %struct.vorbis_floor1_entry, ptr %14, i64 0
  %16 = getelementptr inbounds nuw %struct.vorbis_floor1_entry, ptr %15, i32 0, i32 1
  store i16 0, ptr %16, align 2, !tbaa !27
  %17 = load ptr, ptr %6, align 8, !tbaa !25
  %18 = getelementptr inbounds %struct.vorbis_floor1_entry, ptr %17, i64 1
  %19 = getelementptr inbounds nuw %struct.vorbis_floor1_entry, ptr %18, i32 0, i32 1
  store i16 1, ptr %19, align 2, !tbaa !27
  store i32 2, ptr %8, align 4, !tbaa !4
  br label %20

20:                                               ; preds = %116, %3
  %21 = load i32, ptr %8, align 4, !tbaa !4
  %22 = load i32, ptr %7, align 4, !tbaa !4
  %23 = icmp slt i32 %21, %22
  br i1 %23, label %24, label %119

24:                                               ; preds = %20
  call void @llvm.lifetime.start.p0(i64 4, ptr %9) #6
  %25 = load ptr, ptr %6, align 8, !tbaa !25
  %26 = load i32, ptr %8, align 4, !tbaa !4
  %27 = sext i32 %26 to i64
  %28 = getelementptr inbounds %struct.vorbis_floor1_entry, ptr %25, i64 %27
  %29 = getelementptr inbounds nuw %struct.vorbis_floor1_entry, ptr %28, i32 0, i32 2
  store i16 0, ptr %29, align 2, !tbaa !30
  %30 = load ptr, ptr %6, align 8, !tbaa !25
  %31 = load i32, ptr %8, align 4, !tbaa !4
  %32 = sext i32 %31 to i64
  %33 = getelementptr inbounds %struct.vorbis_floor1_entry, ptr %30, i64 %32
  %34 = getelementptr inbounds nuw %struct.vorbis_floor1_entry, ptr %33, i32 0, i32 3
  store i16 1, ptr %34, align 2, !tbaa !31
  %35 = load i32, ptr %8, align 4, !tbaa !4
  %36 = trunc i32 %35 to i16
  %37 = load ptr, ptr %6, align 8, !tbaa !25
  %38 = load i32, ptr %8, align 4, !tbaa !4
  %39 = sext i32 %38 to i64
  %40 = getelementptr inbounds %struct.vorbis_floor1_entry, ptr %37, i64 %39
  %41 = getelementptr inbounds nuw %struct.vorbis_floor1_entry, ptr %40, i32 0, i32 1
  store i16 %36, ptr %41, align 2, !tbaa !27
  store i32 2, ptr %9, align 4, !tbaa !4
  br label %42

42:                                               ; preds = %112, %24
  %43 = load i32, ptr %9, align 4, !tbaa !4
  %44 = load i32, ptr %8, align 4, !tbaa !4
  %45 = icmp slt i32 %43, %44
  br i1 %45, label %46, label %115

46:                                               ; preds = %42
  call void @llvm.lifetime.start.p0(i64 4, ptr %10) #6
  %47 = load ptr, ptr %6, align 8, !tbaa !25
  %48 = load i32, ptr %9, align 4, !tbaa !4
  %49 = sext i32 %48 to i64
  %50 = getelementptr inbounds %struct.vorbis_floor1_entry, ptr %47, i64 %49
  %51 = getelementptr inbounds nuw %struct.vorbis_floor1_entry, ptr %50, i32 0, i32 0
  %52 = load i16, ptr %51, align 2, !tbaa !32
  %53 = zext i16 %52 to i32
  store i32 %53, ptr %10, align 4, !tbaa !4
  %54 = load i32, ptr %10, align 4, !tbaa !4
  %55 = load ptr, ptr %6, align 8, !tbaa !25
  %56 = load i32, ptr %8, align 4, !tbaa !4
  %57 = sext i32 %56 to i64
  %58 = getelementptr inbounds %struct.vorbis_floor1_entry, ptr %55, i64 %57
  %59 = getelementptr inbounds nuw %struct.vorbis_floor1_entry, ptr %58, i32 0, i32 0
  %60 = load i16, ptr %59, align 2, !tbaa !32
  %61 = zext i16 %60 to i32
  %62 = icmp slt i32 %54, %61
  br i1 %62, label %63, label %87

63:                                               ; preds = %46
  %64 = load i32, ptr %10, align 4, !tbaa !4
  %65 = load ptr, ptr %6, align 8, !tbaa !25
  %66 = load ptr, ptr %6, align 8, !tbaa !25
  %67 = load i32, ptr %8, align 4, !tbaa !4
  %68 = sext i32 %67 to i64
  %69 = getelementptr inbounds %struct.vorbis_floor1_entry, ptr %66, i64 %68
  %70 = getelementptr inbounds nuw %struct.vorbis_floor1_entry, ptr %69, i32 0, i32 2
  %71 = load i16, ptr %70, align 2, !tbaa !30
  %72 = zext i16 %71 to i64
  %73 = getelementptr inbounds nuw %struct.vorbis_floor1_entry, ptr %65, i64 %72
  %74 = getelementptr inbounds nuw %struct.vorbis_floor1_entry, ptr %73, i32 0, i32 0
  %75 = load i16, ptr %74, align 2, !tbaa !32
  %76 = zext i16 %75 to i32
  %77 = icmp sgt i32 %64, %76
  br i1 %77, label %78, label %86

78:                                               ; preds = %63
  %79 = load i32, ptr %9, align 4, !tbaa !4
  %80 = trunc i32 %79 to i16
  %81 = load ptr, ptr %6, align 8, !tbaa !25
  %82 = load i32, ptr %8, align 4, !tbaa !4
  %83 = sext i32 %82 to i64
  %84 = getelementptr inbounds %struct.vorbis_floor1_entry, ptr %81, i64 %83
  %85 = getelementptr inbounds nuw %struct.vorbis_floor1_entry, ptr %84, i32 0, i32 2
  store i16 %80, ptr %85, align 2, !tbaa !30
  br label %86

86:                                               ; preds = %78, %63
  br label %111

87:                                               ; preds = %46
  %88 = load i32, ptr %10, align 4, !tbaa !4
  %89 = load ptr, ptr %6, align 8, !tbaa !25
  %90 = load ptr, ptr %6, align 8, !tbaa !25
  %91 = load i32, ptr %8, align 4, !tbaa !4
  %92 = sext i32 %91 to i64
  %93 = getelementptr inbounds %struct.vorbis_floor1_entry, ptr %90, i64 %92
  %94 = getelementptr inbounds nuw %struct.vorbis_floor1_entry, ptr %93, i32 0, i32 3
  %95 = load i16, ptr %94, align 2, !tbaa !31
  %96 = zext i16 %95 to i64
  %97 = getelementptr inbounds nuw %struct.vorbis_floor1_entry, ptr %89, i64 %96
  %98 = getelementptr inbounds nuw %struct.vorbis_floor1_entry, ptr %97, i32 0, i32 0
  %99 = load i16, ptr %98, align 2, !tbaa !32
  %100 = zext i16 %99 to i32
  %101 = icmp slt i32 %88, %100
  br i1 %101, label %102, label %110

102:                                              ; preds = %87
  %103 = load i32, ptr %9, align 4, !tbaa !4
  %104 = trunc i32 %103 to i16
  %105 = load ptr, ptr %6, align 8, !tbaa !25
  %106 = load i32, ptr %8, align 4, !tbaa !4
  %107 = sext i32 %106 to i64
  %108 = getelementptr inbounds %struct.vorbis_floor1_entry, ptr %105, i64 %107
  %109 = getelementptr inbounds nuw %struct.vorbis_floor1_entry, ptr %108, i32 0, i32 3
  store i16 %104, ptr %109, align 2, !tbaa !31
  br label %110

110:                                              ; preds = %102, %87
  br label %111

111:                                              ; preds = %110, %86
  call void @llvm.lifetime.end.p0(i64 4, ptr %10) #6
  br label %112

112:                                              ; preds = %111
  %113 = load i32, ptr %9, align 4, !tbaa !4
  %114 = add nsw i32 %113, 1
  store i32 %114, ptr %9, align 4, !tbaa !4
  br label %42, !llvm.loop !33

115:                                              ; preds = %42
  call void @llvm.lifetime.end.p0(i64 4, ptr %9) #6
  br label %116

116:                                              ; preds = %115
  %117 = load i32, ptr %8, align 4, !tbaa !4
  %118 = add nsw i32 %117, 1
  store i32 %118, ptr %8, align 4, !tbaa !4
  br label %20, !llvm.loop !34

119:                                              ; preds = %20
  store i32 0, ptr %8, align 4, !tbaa !4
  br label %120

120:                                              ; preds = %210, %119
  %121 = load i32, ptr %8, align 4, !tbaa !4
  %122 = load i32, ptr %7, align 4, !tbaa !4
  %123 = sub nsw i32 %122, 1
  %124 = icmp slt i32 %121, %123
  br i1 %124, label %125, label %213

125:                                              ; preds = %120
  call void @llvm.lifetime.start.p0(i64 4, ptr %11) #6
  %126 = load i32, ptr %8, align 4, !tbaa !4
  %127 = add nsw i32 %126, 1
  store i32 %127, ptr %11, align 4, !tbaa !4
  br label %128

128:                                              ; preds = %203, %125
  %129 = load i32, ptr %11, align 4, !tbaa !4
  %130 = load i32, ptr %7, align 4, !tbaa !4
  %131 = icmp slt i32 %129, %130
  br i1 %131, label %132, label %206

132:                                              ; preds = %128
  %133 = load ptr, ptr %6, align 8, !tbaa !25
  %134 = load i32, ptr %8, align 4, !tbaa !4
  %135 = sext i32 %134 to i64
  %136 = getelementptr inbounds %struct.vorbis_floor1_entry, ptr %133, i64 %135
  %137 = getelementptr inbounds nuw %struct.vorbis_floor1_entry, ptr %136, i32 0, i32 0
  %138 = load i16, ptr %137, align 2, !tbaa !32
  %139 = zext i16 %138 to i32
  %140 = load ptr, ptr %6, align 8, !tbaa !25
  %141 = load i32, ptr %11, align 4, !tbaa !4
  %142 = sext i32 %141 to i64
  %143 = getelementptr inbounds %struct.vorbis_floor1_entry, ptr %140, i64 %142
  %144 = getelementptr inbounds nuw %struct.vorbis_floor1_entry, ptr %143, i32 0, i32 0
  %145 = load i16, ptr %144, align 2, !tbaa !32
  %146 = zext i16 %145 to i32
  %147 = icmp eq i32 %139, %146
  br i1 %147, label %148, label %150

148:                                              ; preds = %132
  %149 = load ptr, ptr %5, align 8, !tbaa !24
  call void (ptr, i32, ptr, ...) @av_log(ptr noundef %149, i32 noundef 16, ptr noundef @.str)
  store i32 -1094995529, ptr %4, align 4
  store i32 1, ptr %12, align 4
  br label %207

150:                                              ; preds = %132
  %151 = load ptr, ptr %6, align 8, !tbaa !25
  %152 = load ptr, ptr %6, align 8, !tbaa !25
  %153 = load i32, ptr %8, align 4, !tbaa !4
  %154 = sext i32 %153 to i64
  %155 = getelementptr inbounds %struct.vorbis_floor1_entry, ptr %152, i64 %154
  %156 = getelementptr inbounds nuw %struct.vorbis_floor1_entry, ptr %155, i32 0, i32 1
  %157 = load i16, ptr %156, align 2, !tbaa !27
  %158 = zext i16 %157 to i64
  %159 = getelementptr inbounds nuw %struct.vorbis_floor1_entry, ptr %151, i64 %158
  %160 = getelementptr inbounds nuw %struct.vorbis_floor1_entry, ptr %159, i32 0, i32 0
  %161 = load i16, ptr %160, align 2, !tbaa !32
  %162 = zext i16 %161 to i32
  %163 = load ptr, ptr %6, align 8, !tbaa !25
  %164 = load ptr, ptr %6, align 8, !tbaa !25
  %165 = load i32, ptr %11, align 4, !tbaa !4
  %166 = sext i32 %165 to i64
  %167 = getelementptr inbounds %struct.vorbis_floor1_entry, ptr %164, i64 %166
  %168 = getelementptr inbounds nuw %struct.vorbis_floor1_entry, ptr %167, i32 0, i32 1
  %169 = load i16, ptr %168, align 2, !tbaa !27
  %170 = zext i16 %169 to i64
  %171 = getelementptr inbounds nuw %struct.vorbis_floor1_entry, ptr %163, i64 %170
  %172 = getelementptr inbounds nuw %struct.vorbis_floor1_entry, ptr %171, i32 0, i32 0
  %173 = load i16, ptr %172, align 2, !tbaa !32
  %174 = zext i16 %173 to i32
  %175 = icmp sgt i32 %162, %174
  br i1 %175, label %176, label %202

176:                                              ; preds = %150
  call void @llvm.lifetime.start.p0(i64 4, ptr %13) #6
  %177 = load ptr, ptr %6, align 8, !tbaa !25
  %178 = load i32, ptr %8, align 4, !tbaa !4
  %179 = sext i32 %178 to i64
  %180 = getelementptr inbounds %struct.vorbis_floor1_entry, ptr %177, i64 %179
  %181 = getelementptr inbounds nuw %struct.vorbis_floor1_entry, ptr %180, i32 0, i32 1
  %182 = load i16, ptr %181, align 2, !tbaa !27
  %183 = zext i16 %182 to i32
  store i32 %183, ptr %13, align 4, !tbaa !4
  %184 = load ptr, ptr %6, align 8, !tbaa !25
  %185 = load i32, ptr %11, align 4, !tbaa !4
  %186 = sext i32 %185 to i64
  %187 = getelementptr inbounds %struct.vorbis_floor1_entry, ptr %184, i64 %186
  %188 = getelementptr inbounds nuw %struct.vorbis_floor1_entry, ptr %187, i32 0, i32 1
  %189 = load i16, ptr %188, align 2, !tbaa !27
  %190 = load ptr, ptr %6, align 8, !tbaa !25
  %191 = load i32, ptr %8, align 4, !tbaa !4
  %192 = sext i32 %191 to i64
  %193 = getelementptr inbounds %struct.vorbis_floor1_entry, ptr %190, i64 %192
  %194 = getelementptr inbounds nuw %struct.vorbis_floor1_entry, ptr %193, i32 0, i32 1
  store i16 %189, ptr %194, align 2, !tbaa !27
  %195 = load i32, ptr %13, align 4, !tbaa !4
  %196 = trunc i32 %195 to i16
  %197 = load ptr, ptr %6, align 8, !tbaa !25
  %198 = load i32, ptr %11, align 4, !tbaa !4
  %199 = sext i32 %198 to i64
  %200 = getelementptr inbounds %struct.vorbis_floor1_entry, ptr %197, i64 %199
  %201 = getelementptr inbounds nuw %struct.vorbis_floor1_entry, ptr %200, i32 0, i32 1
  store i16 %196, ptr %201, align 2, !tbaa !27
  call void @llvm.lifetime.end.p0(i64 4, ptr %13) #6
  br label %202

202:                                              ; preds = %176, %150
  br label %203

203:                                              ; preds = %202
  %204 = load i32, ptr %11, align 4, !tbaa !4
  %205 = add nsw i32 %204, 1
  store i32 %205, ptr %11, align 4, !tbaa !4
  br label %128, !llvm.loop !35

206:                                              ; preds = %128
  store i32 0, ptr %12, align 4
  br label %207

207:                                              ; preds = %206, %148
  call void @llvm.lifetime.end.p0(i64 4, ptr %11) #6
  %208 = load i32, ptr %12, align 4
  switch i32 %208, label %214 [
    i32 0, label %209
  ]

209:                                              ; preds = %207
  br label %210

210:                                              ; preds = %209
  %211 = load i32, ptr %8, align 4, !tbaa !4
  %212 = add nsw i32 %211, 1
  store i32 %212, ptr %8, align 4, !tbaa !4
  br label %120, !llvm.loop !36

213:                                              ; preds = %120
  store i32 0, ptr %4, align 4
  store i32 1, ptr %12, align 4
  br label %214

214:                                              ; preds = %213, %207
  call void @llvm.lifetime.end.p0(i64 4, ptr %8) #6
  %215 = load i32, ptr %4, align 4
  ret i32 %215
}