; Function Attrs: nounwind uwtable
define range(i32 -1094995529, 1) i32 @ff_vorbis_ready_floor1_list(ptr noundef %0, ptr noundef captures(none) initializes((2, 4), (10, 12)) %1, i32 noundef %2) local_unnamed_addr #4 {
  %4 = getelementptr inbounds nuw i8, ptr %1, i64 2
  store i16 0, ptr %4, align 2, !tbaa !19
  %5 = getelementptr inbounds nuw i8, ptr %1, i64 10
  store i16 1, ptr %5, align 2, !tbaa !19
  %6 = icmp sgt i32 %2, 2
  br i1 %6, label %.lr.ph73.preheader, label %.critedge.preheader

.lr.ph73.preheader:                               ; preds = %3
  %wide.trip.count84 = zext nneg i32 %2 to i64
  br label %.lr.ph73

.critedge.preheader:                              ; preds = %._crit_edge, %3
  %7 = icmp sgt i32 %2, 1
  br i1 %7, label %.lr.ph79.preheader, label %.loopexit

.lr.ph79.preheader:                               ; preds = %.critedge.preheader
  %8 = add nsw i32 %2, -1
  %wide.trip.count95 = zext nneg i32 %8 to i64
  %wide.trip.count = zext nneg i32 %2 to i64
  br label %.lr.ph77

.lr.ph73:                                         ; preds = %.lr.ph73.preheader, %._crit_edge
  %indvars.iv81 = phi i64 [ 2, %.lr.ph73.preheader ], [ %indvars.iv.next82, %._crit_edge ]
  %9 = getelementptr inbounds nuw %struct.vorbis_floor1_entry, ptr %1, i64 %indvars.iv81
  %10 = getelementptr inbounds nuw i8, ptr %9, i64 4
  store i16 0, ptr %10, align 2, !tbaa !22
  %11 = getelementptr inbounds nuw i8, ptr %9, i64 6
  store i16 1, ptr %11, align 2, !tbaa !23
  %12 = trunc i64 %indvars.iv81 to i16
  %13 = getelementptr inbounds nuw i8, ptr %9, i64 2
  store i16 %12, ptr %13, align 2, !tbaa !19
  %14 = icmp samesign ugt i64 %indvars.iv81, 2
  br i1 %14, label %.lr.ph, label %._crit_edge

.lr.ph:                                           ; preds = %.lr.ph73
  %15 = load i16, ptr %9, align 2, !tbaa !24
  br label %16

16:                                               ; preds = %.lr.ph, %36
  %17 = phi i16 [ 0, %.lr.ph ], [ %37, %36 ]
  %18 = phi i16 [ 1, %.lr.ph ], [ %38, %36 ]
  %indvars.iv = phi i64 [ 2, %.lr.ph ], [ %indvars.iv.next, %36 ]
  %19 = getelementptr inbounds nuw %struct.vorbis_floor1_entry, ptr %1, i64 %indvars.iv
  %20 = load i16, ptr %19, align 2, !tbaa !24
  %21 = icmp ult i16 %20, %15
  br i1 %21, label %22, label %29

22:                                               ; preds = %16
  %23 = zext i16 %17 to i64
  %24 = getelementptr inbounds nuw %struct.vorbis_floor1_entry, ptr %1, i64 %23
  %25 = load i16, ptr %24, align 2, !tbaa !24
  %26 = icmp ugt i16 %20, %25
  br i1 %26, label %27, label %36

27:                                               ; preds = %22
  %28 = trunc i64 %indvars.iv to i16
  store i16 %28, ptr %10, align 2, !tbaa !22
  br label %36

29:                                               ; preds = %16
  %30 = zext i16 %18 to i64
  %31 = getelementptr inbounds nuw %struct.vorbis_floor1_entry, ptr %1, i64 %30
  %32 = load i16, ptr %31, align 2, !tbaa !24
  %33 = icmp ult i16 %20, %32
  br i1 %33, label %34, label %36

34:                                               ; preds = %29
  %35 = trunc i64 %indvars.iv to i16
  store i16 %35, ptr %11, align 2, !tbaa !23
  br label %36

36:                                               ; preds = %29, %34, %22, %27
  %37 = phi i16 [ %17, %29 ], [ %17, %34 ], [ %17, %22 ], [ %28, %27 ]
  %38 = phi i16 [ %18, %29 ], [ %35, %34 ], [ %18, %22 ], [ %18, %27 ]
  %indvars.iv.next = add nuw nsw i64 %indvars.iv, 1
  %exitcond.not = icmp eq i64 %indvars.iv.next, %indvars.iv81
  br i1 %exitcond.not, label %._crit_edge, label %16, !llvm.loop !25

._crit_edge:                                      ; preds = %36, %.lr.ph73
  %indvars.iv.next82 = add nuw nsw i64 %indvars.iv81, 1
  %exitcond85.not = icmp eq i64 %indvars.iv.next82, %wide.trip.count84
  br i1 %exitcond85.not, label %.critedge.preheader, label %.lr.ph73, !llvm.loop !26

.critedge.loopexit:                               ; preds = %59
  %indvars.iv.next87 = add nuw nsw i64 %indvars.iv86, 1
  %exitcond96.not = icmp eq i64 %indvars.iv.next93, %wide.trip.count95
  br i1 %exitcond96.not, label %.loopexit, label %.lr.ph77, !llvm.loop !27

.lr.ph77:                                         ; preds = %.critedge.loopexit, %.lr.ph79.preheader
  %indvars.iv92 = phi i64 [ 0, %.lr.ph79.preheader ], [ %indvars.iv.next93, %.critedge.loopexit ]
  %indvars.iv86 = phi i64 [ 1, %.lr.ph79.preheader ], [ %indvars.iv.next87, %.critedge.loopexit ]
  %indvars.iv.next93 = add nuw nsw i64 %indvars.iv92, 1
  %39 = getelementptr inbounds nuw %struct.vorbis_floor1_entry, ptr %1, i64 %indvars.iv92
  %40 = load i16, ptr %39, align 2, !tbaa !24
  %41 = getelementptr inbounds nuw i8, ptr %39, i64 2
  br label %42

42:                                               ; preds = %.lr.ph77, %59
  %indvars.iv88 = phi i64 [ %indvars.iv86, %.lr.ph77 ], [ %indvars.iv.next89, %59 ]
  %43 = getelementptr inbounds nuw %struct.vorbis_floor1_entry, ptr %1, i64 %indvars.iv88
  %44 = load i16, ptr %43, align 2, !tbaa !24
  %45 = icmp eq i16 %40, %44
  br i1 %45, label %46, label %47

46:                                               ; preds = %42
  tail call void (ptr, i32, ptr, ...) @av_log(ptr noundef %0, i32 noundef 16, ptr noundef nonnull @.str) #8
  br label %.loopexit

47:                                               ; preds = %42
  %48 = load i16, ptr %41, align 2, !tbaa !19
  %49 = zext i16 %48 to i64
  %50 = getelementptr inbounds nuw %struct.vorbis_floor1_entry, ptr %1, i64 %49
  %51 = load i16, ptr %50, align 2, !tbaa !24
  %52 = getelementptr inbounds nuw i8, ptr %43, i64 2
  %53 = load i16, ptr %52, align 2, !tbaa !19
  %54 = zext i16 %53 to i64
  %55 = getelementptr inbounds nuw %struct.vorbis_floor1_entry, ptr %1, i64 %54
  %56 = load i16, ptr %55, align 2, !tbaa !24
  %57 = icmp ugt i16 %51, %56
  br i1 %57, label %58, label %59

58:                                               ; preds = %47
  store i16 %53, ptr %41, align 2, !tbaa !19
  store i16 %48, ptr %52, align 2, !tbaa !19
  br label %59

59:                                               ; preds = %47, %58
  %indvars.iv.next89 = add nuw nsw i64 %indvars.iv88, 1
  %exitcond91.not = icmp eq i64 %indvars.iv.next89, %wide.trip.count
  br i1 %exitcond91.not, label %.critedge.loopexit, label %42, !llvm.loop !28

.loopexit:                                        ; preds = %.critedge.loopexit, %.critedge.preheader, %46
  %.2 = phi i32 [ -1094995529, %46 ], [ 0, %.critedge.preheader ], [ 0, %.critedge.loopexit ]
  ret i32 %.2
}